target datalayout = "e-m:e-p270:32:32-p271:32:32-p272:64:64-i64:64-i128:128-f80:128-n8:16:32:64-S128"
target triple = "x86_64-pc-linux-gnu"

%struct.cJSON = type { ptr, ptr, ptr, i32, ptr, i32, double, ptr }

; Function Attrs: nounwind sspstrong uwtable
define ptr @cJSONUtils_GenerateMergePatch(ptr noundef %0, ptr noundef %1) #0 {
  %3 = alloca ptr, align 8
  %4 = alloca ptr, align 8
  store ptr %0, ptr %3, align 8, !tbaa !3
  store ptr %1, ptr %4, align 8, !tbaa !3
  %5 = load ptr, ptr %3, align 8, !tbaa !3
  %6 = load ptr, ptr %4, align 8, !tbaa !3
  %7 = call ptr @generate_merge_patch(ptr noundef %5, ptr noundef %6, i32 noundef 0)
  ret ptr %7
}

; Function Attrs: nounwind sspstrong uwtable
define internal void @sort_object(ptr noundef %0, i32 noundef %1) #0 {
  %3 = alloca ptr, align 8
  %4 = alloca i32, align 4
  store ptr %0, ptr %3, align 8, !tbaa !3
  store i32 %1, ptr %4, align 4, !tbaa !19
  %5 = load ptr, ptr %3, align 8, !tbaa !3
  %6 = icmp eq ptr %5, null
  br i1 %6, label %7, label %8

7:                                                ; preds = %2
  br label %16

8:                                                ; preds = %2
  %9 = load ptr, ptr %3, align 8, !tbaa !3
  %10 = getelementptr inbounds nuw %struct.cJSON, ptr %9, i32 0, i32 2
  %11 = load ptr, ptr %10, align 8, !tbaa !10
  %12 = load i32, ptr %4, align 4, !tbaa !19
  %13 = call ptr @sort_list(ptr noundef %11, i32 noundef %12)
  %14 = load ptr, ptr %3, align 8, !tbaa !3
  %15 = getelementptr inbounds nuw %struct.cJSON, ptr %14, i32 0, i32 2
  store ptr %13, ptr %15, align 8, !tbaa !10
  br label %16

16:                                               ; preds = %8, %7
  ret void
}

; Function Attrs: nounwind sspstrong uwtable
define internal ptr @generate_merge_patch(ptr noundef %0, ptr noundef %1, i32 noundef %2) #0 {
  %4 = alloca ptr, align 8
  %5 = alloca ptr, align 8
  %6 = alloca ptr, align 8
  %7 = alloca i32, align 4
  %8 = alloca ptr, align 8
  %9 = alloca ptr, align 8
  %10 = alloca ptr, align 8
  %11 = alloca i32, align 4
  %12 = alloca i32, align 4
  store ptr %0, ptr %5, align 8, !tbaa !3
  store ptr %1, ptr %6, align 8, !tbaa !3
  store i32 %2, ptr %7, align 4, !tbaa !19
  call void @llvm.lifetime.start.p0(i64 8, ptr %8) #8
  store ptr null, ptr %8, align 8, !tbaa !3
  call void @llvm.lifetime.start.p0(i64 8, ptr %9) #8
  store ptr null, ptr %9, align 8, !tbaa !3
  call void @llvm.lifetime.start.p0(i64 8, ptr %10) #8
  store ptr null, ptr %10, align 8, !tbaa !3
  %13 = load ptr, ptr %6, align 8, !tbaa !3
  %14 = icmp eq ptr %13, null
  br i1 %14, label %15, label %17

15:                                               ; preds = %3
  %16 = call ptr @cJSON_CreateNull()
  store ptr %16, ptr %4, align 8
  store i32 1, ptr %11, align 4
  br label %129

17:                                               ; preds = %3
  %18 = load ptr, ptr %6, align 8, !tbaa !3
  %19 = call i32 @cJSON_IsObject(ptr noundef %18)
  %20 = icmp ne i32 %19, 0
  br i1 %20, label %21, label %25

21:                                               ; preds = %17
  %22 = load ptr, ptr %5, align 8, !tbaa !3
  %23 = call i32 @cJSON_IsObject(ptr noundef %22)
  %24 = icmp ne i32 %23, 0
  br i1 %24, label %28, label %25

25:                                               ; preds = %21, %17
  %26 = load ptr, ptr %6, align 8, !tbaa !3
  %27 = call ptr @cJSON_Duplicate(ptr noundef %26, i32 noundef 1)
  store ptr %27, ptr %4, align 8
  store i32 1, ptr %11, align 4
  br label %129

28:                                               ; preds = %21
  %29 = load ptr, ptr %5, align 8, !tbaa !3
  %30 = load i32, ptr %7, align 4, !tbaa !19
  call void @sort_object(ptr noundef %29, i32 noundef %30)
  %31 = load ptr, ptr %6, align 8, !tbaa !3
  %32 = load i32, ptr %7, align 4, !tbaa !19
  call void @sort_object(ptr noundef %31, i32 noundef %32)
  %33 = load ptr, ptr %5, align 8, !tbaa !3
  %34 = getelementptr inbounds nuw %struct.cJSON, ptr %33, i32 0, i32 2
  %35 = load ptr, ptr %34, align 8, !tbaa !10
  store ptr %35, ptr %8, align 8, !tbaa !3
  %36 = load ptr, ptr %6, align 8, !tbaa !3
  %37 = getelementptr inbounds nuw %struct.cJSON, ptr %36, i32 0, i32 2
  %38 = load ptr, ptr %37, align 8, !tbaa !10
  store ptr %38, ptr %9, align 8, !tbaa !3
  %39 = call ptr @cJSON_CreateObject()
  store ptr %39, ptr %10, align 8, !tbaa !3
  %40 = load ptr, ptr %10, align 8, !tbaa !3
  %41 = icmp eq ptr %40, null
  br i1 %41, label %42, label %43

42:                                               ; preds = %28
  store ptr null, ptr %4, align 8
  store i32 1, ptr %11, align 4
  br label %129

43:                                               ; preds = %28
  br label %44

44:                                               ; preds = %119, %43
  %45 = load ptr, ptr %8, align 8, !tbaa !3
  %46 = icmp ne ptr %45, null
  br i1 %46, label %50, label %47

47:                                               ; preds = %44
  %48 = load ptr, ptr %9, align 8, !tbaa !3
  %49 = icmp ne ptr %48, null
  br label %50

50:                                               ; preds = %47, %44
  %51 = phi i1 [ true, %44 ], [ %49, %47 ]
  br i1 %51, label %52, label %120

52:                                               ; preds = %50
  call void @llvm.lifetime.start.p0(i64 4, ptr %12) #8
  %53 = load ptr, ptr %8, align 8, !tbaa !3
  %54 = icmp ne ptr %53, null
  br i1 %54, label %55, label %68

55:                                               ; preds = %52
  %56 = load ptr, ptr %9, align 8, !tbaa !3
  %57 = icmp ne ptr %56, null
  br i1 %57, label %58, label %66

58:                                               ; preds = %55
  %59 = load ptr, ptr %8, align 8, !tbaa !3
  %60 = getelementptr inbounds nuw %struct.cJSON, ptr %59, i32 0, i32 7
  %61 = load ptr, ptr %60, align 8, !tbaa !16
  %62 = load ptr, ptr %9, align 8, !tbaa !3
  %63 = getelementptr inbounds nuw %struct.cJSON, ptr %62, i32 0, i32 7
  %64 = load ptr, ptr %63, align 8, !tbaa !16
  %65 = call i32 @strcmp(ptr noundef %61, ptr noundef %64) #9
  store i32 %65, ptr %12, align 4, !tbaa !19
  br label %67

66:                                               ; preds = %55
  store i32 -1, ptr %12, align 4, !tbaa !19
  br label %67

67:                                               ; preds = %66, %58
  br label %69

68:                                               ; preds = %52
  store i32 1, ptr %12, align 4, !tbaa !19
  br label %69

69:                                               ; preds = %68, %67
  %70 = load i32, ptr %12, align 4, !tbaa !19
  %71 = icmp slt i32 %70, 0
  br i1 %71, label %72, label %82

72:                                               ; preds = %69
  %73 = load ptr, ptr %10, align 8, !tbaa !3
  %74 = load ptr, ptr %8, align 8, !tbaa !3
  %75 = getelementptr inbounds nuw %struct.cJSON, ptr %74, i32 0, i32 7
  %76 = load ptr, ptr %75, align 8, !tbaa !16
  %77 = call ptr @cJSON_CreateNull()
  %78 = call i32 @cJSON_AddItemToObject(ptr noundef %73, ptr noundef %76, ptr noundef %77)
  %79 = load ptr, ptr %8, align 8, !tbaa !3
  %80 = getelementptr inbounds nuw %struct.cJSON, ptr %79, i32 0, i32 0
  %81 = load ptr, ptr %80, align 8, !tbaa !18
  store ptr %81, ptr %8, align 8, !tbaa !3
  br label %119

82:                                               ; preds = %69
  %83 = load i32, ptr %12, align 4, !tbaa !19
  %84 = icmp sgt i32 %83, 0
  br i1 %84, label %85, label %96

85:                                               ; preds = %82
  %86 = load ptr, ptr %10, align 8, !tbaa !3
  %87 = load ptr, ptr %9, align 8, !tbaa !3
  %88 = getelementptr inbounds nuw %struct.cJSON, ptr %87, i32 0, i32 7
  %89 = load ptr, ptr %88, align 8, !tbaa !16
  %90 = load ptr, ptr %9, align 8, !tbaa !3
  %91 = call ptr @cJSON_Duplicate(ptr noundef %90, i32 noundef 1)
  %92 = call i32 @cJSON_AddItemToObject(ptr noundef %86, ptr noundef %89, ptr noundef %91)
  %93 = load ptr, ptr %9, align 8, !tbaa !3
  %94 = getelementptr inbounds nuw %struct.cJSON, ptr %93, i32 0, i32 0
  %95 = load ptr, ptr %94, align 8, !tbaa !18
  store ptr %95, ptr %9, align 8, !tbaa !3
  br label %118

96:                                               ; preds = %82
  %97 = load ptr, ptr %8, align 8, !tbaa !3
  %98 = load ptr, ptr %9, align 8, !tbaa !3
  %99 = load i32, ptr %7, align 4, !tbaa !19
  %100 = call i32 @compare_json(ptr noundef %97, ptr noundef %98, i32 noundef %99)
  %101 = icmp ne i32 %100, 0
  br i1 %101, label %111, label %102

102:                                              ; preds = %96
  %103 = load ptr, ptr %10, align 8, !tbaa !3
  %104 = load ptr, ptr %9, align 8, !tbaa !3
  %105 = getelementptr inbounds nuw %struct.cJSON, ptr %104, i32 0, i32 7
  %106 = load ptr, ptr %105, align 8, !tbaa !16
  %107 = load ptr, ptr %8, align 8, !tbaa !3
  %108 = load ptr, ptr %9, align 8, !tbaa !3
  %109 = call ptr @cJSONUtils_GenerateMergePatch(ptr noundef %107, ptr noundef %108)
  %110 = call i32 @cJSON_AddItemToObject(ptr noundef %103, ptr noundef %106, ptr noundef %109)
  br label %111

111:                                              ; preds = %102, %96
  %112 = load ptr, ptr %8, align 8, !tbaa !3
  %113 = getelementptr inbounds nuw %struct.cJSON, ptr %112, i32 0, i32 0
  %114 = load ptr, ptr %113, align 8, !tbaa !18
  store ptr %114, ptr %8, align 8, !tbaa !3
  %115 = load ptr, ptr %9, align 8, !tbaa !3
  %116 = getelementptr inbounds nuw %struct.cJSON, ptr %115, i32 0, i32 0
  %117 = load ptr, ptr %116, align 8, !tbaa !18
  store ptr %117, ptr %9, align 8, !tbaa !3
  br label %118

118:                                              ; preds = %111, %85
  br label %119

119:                                              ; preds = %118, %72
  call void @llvm.lifetime.end.p0(i64 4, ptr %12) #8
  br label %44

120:                                              ; preds = %50
  %121 = load ptr, ptr %10, align 8, !tbaa !3
  %122 = getelementptr inbounds nuw %struct.cJSON, ptr %121, i32 0, i32 2
  %123 = load ptr, ptr %122, align 8, !tbaa !10
  %124 = icmp eq ptr %123, null
  br i1 %124, label %125, label %127

125:                                              ; preds = %120
  %126 = load ptr, ptr %10, align 8, !tbaa !3
  call void @cJSON_Delete(ptr noundef %126)
  store ptr null, ptr %4, align 8
  store i32 1, ptr %11, align 4
  br label %129

127:                                              ; preds = %120
  %128 = load ptr, ptr %10, align 8, !tbaa !3
  store ptr %128, ptr %4, align 8
  store i32 1, ptr %11, align 4
  br label %129

129:                                              ; preds = %127, %125, %42, %25, %15
  call void @llvm.lifetime.end.p0(i64 8, ptr %10) #8
  call void @llvm.lifetime.end.p0(i64 8, ptr %9) #8
  call void @llvm.lifetime.end.p0(i64 8, ptr %8) #8
  %130 = load ptr, ptr %4, align 8
  ret ptr %130
}