; Function Attrs: nounwind sspstrong uwtable
define internal fastcc ptr @generate_merge_patch(ptr noundef %0, ptr noundef %1, i32 noundef range(i32 0, 2) %2) unnamed_addr #0 {
  %4 = icmp eq ptr %1, null
  br i1 %4, label %5, label %7

5:                                                ; preds = %3
  %6 = tail call ptr @cJSON_CreateNull() #13
  br label %71

7:                                                ; preds = %3
  %8 = tail call i32 @cJSON_IsObject(ptr noundef nonnull %1) #13
  %.not = icmp eq i32 %8, 0
  br i1 %.not, label %11, label %9

9:                                                ; preds = %7
  %10 = tail call i32 @cJSON_IsObject(ptr noundef %0) #13
  %.not43 = icmp eq i32 %10, 0
  br i1 %.not43, label %11, label %13

11:                                               ; preds = %9, %7
  %12 = tail call ptr @cJSON_Duplicate(ptr noundef nonnull %1, i32 noundef 1) #13
  br label %71

13:                                               ; preds = %9
  %14 = icmp eq ptr %0, null
  br i1 %14, label %sort_object.exit48, label %15

15:                                               ; preds = %13
  %16 = getelementptr inbounds nuw i8, ptr %0, i64 16
  %17 = load ptr, ptr %16, align 8, !tbaa !17
  %18 = tail call fastcc ptr @sort_list(ptr noundef %17, i32 noundef range(i32 0, 2) %2)
  store ptr %18, ptr %16, align 8, !tbaa !17
  br label %sort_object.exit48

sort_object.exit48:                               ; preds = %13, %15
  %19 = getelementptr inbounds nuw i8, ptr %1, i64 16
  %20 = load ptr, ptr %19, align 8, !tbaa !17
  %21 = tail call fastcc ptr @sort_list(ptr noundef %20, i32 noundef range(i32 0, 2) %2)
  store ptr %21, ptr %19, align 8, !tbaa !17
  %22 = getelementptr inbounds nuw i8, ptr %0, i64 16
  %23 = load ptr, ptr %22, align 8, !tbaa !17
  %24 = tail call ptr @cJSON_CreateObject() #13
  %25 = icmp eq ptr %24, null
  br i1 %25, label %71, label %.preheader

.preheader:                                       ; preds = %sort_object.exit48
  %26 = icmp ne ptr %23, null
  %27 = icmp ne ptr %21, null
  %28 = select i1 %26, i1 true, i1 %27
  br i1 %28, label %.lr.ph, label %._crit_edge

.lr.ph:                                           ; preds = %.preheader, %63
  %29 = phi i1 [ %65, %63 ], [ %27, %.preheader ]
  %30 = phi i1 [ %64, %63 ], [ %26, %.preheader ]
  %.03850 = phi ptr [ %.1, %63 ], [ %21, %.preheader ]
  %.03949 = phi ptr [ %.140, %63 ], [ %23, %.preheader ]
  %31 = select i1 %30, i1 %29, i1 false
  %.mux = select i1 %30, i32 -1, i32 1
  br i1 %31, label %32, label %38

32:                                               ; preds = %.lr.ph
  %33 = getelementptr inbounds nuw i8, ptr %.03949, i64 56
  %34 = load ptr, ptr %33, align 8, !tbaa !8
  %35 = getelementptr inbounds nuw i8, ptr %.03850, i64 56
  %36 = load ptr, ptr %35, align 8, !tbaa !8
  %37 = tail call i32 @strcmp(ptr noundef nonnull dereferenceable(1) %34, ptr noundef nonnull dereferenceable(1) %36) #14
  br label %38

38:                                               ; preds = %.lr.ph, %32
  %.0 = phi i32 [ %37, %32 ], [ %.mux, %.lr.ph ]
  %39 = icmp slt i32 %.0, 0
  br i1 %39, label %40, label %46

40:                                               ; preds = %38
  %41 = getelementptr inbounds nuw i8, ptr %.03949, i64 56
  %42 = load ptr, ptr %41, align 8, !tbaa !8
  %43 = tail call ptr @cJSON_CreateNull() #13
  %44 = tail call i32 @cJSON_AddItemToObject(ptr noundef nonnull %24, ptr noundef %42, ptr noundef %43) #13
  %45 = load ptr, ptr %.03949, align 8, !tbaa !18
  br label %63

46:                                               ; preds = %38
  %.not44 = icmp eq i32 %.0, 0
  br i1 %.not44, label %53, label %47

47:                                               ; preds = %46
  %48 = getelementptr inbounds nuw i8, ptr %.03850, i64 56
  %49 = load ptr, ptr %48, align 8, !tbaa !8
  %50 = tail call ptr @cJSON_Duplicate(ptr noundef %.03850, i32 noundef 1) #13
  %51 = tail call i32 @cJSON_AddItemToObject(ptr noundef nonnull %24, ptr noundef %49, ptr noundef %50) #13
  %52 = load ptr, ptr %.03850, align 8, !tbaa !18
  br label %63

53:                                               ; preds = %46
  %54 = tail call fastcc i32 @compare_json(ptr noundef %.03949, ptr noundef %.03850, i32 noundef %2)
  %.not45 = icmp eq i32 %54, 0
  br i1 %.not45, label %55, label %60

55:                                               ; preds = %53
  %56 = getelementptr inbounds nuw i8, ptr %.03850, i64 56
  %57 = load ptr, ptr %56, align 8, !tbaa !8
  %58 = tail call fastcc ptr @generate_merge_patch(ptr noundef %.03949, ptr noundef %.03850, i32 noundef 0)
  %59 = tail call i32 @cJSON_AddItemToObject(ptr noundef nonnull %24, ptr noundef %57, ptr noundef %58) #13
  br label %60

60:                                               ; preds = %55, %53
  %61 = load ptr, ptr %.03949, align 8, !tbaa !18
  %62 = load ptr, ptr %.03850, align 8, !tbaa !18
  br label %63

63:                                               ; preds = %47, %60, %40
  %.140 = phi ptr [ %45, %40 ], [ %.03949, %47 ], [ %61, %60 ]
  %.1 = phi ptr [ %.03850, %40 ], [ %52, %47 ], [ %62, %60 ]
  %64 = icmp ne ptr %.140, null
  %65 = icmp ne ptr %.1, null
  %66 = select i1 %64, i1 true, i1 %65
  br i1 %66, label %.lr.ph, label %._crit_edge

._crit_edge:                                      ; preds = %63, %.preheader
  %67 = getelementptr inbounds nuw i8, ptr %24, i64 16
  %68 = load ptr, ptr %67, align 8, !tbaa !17
  %69 = icmp eq ptr %68, null
  br i1 %69, label %70, label %71

70:                                               ; preds = %._crit_edge
  tail call void @cJSON_Delete(ptr noundef nonnull %24) #13
  br label %71

71:                                               ; preds = %._crit_edge, %sort_object.exit48, %70, %11, %5
  %.041 = phi ptr [ %6, %5 ], [ null, %70 ], [ %12, %11 ], [ null, %sort_object.exit48 ], [ %24, %._crit_edge ]
  ret ptr %.041
}